target datalayout = "e-m:e-p270:32:32-p271:32:32-p272:64:64-i64:64-i128:128-f80:128-n8:16:32:64-S128"
target triple = "x86_64-pc-linux-gnu"

; Function Attrs: nounwind uwtable
define dso_local ptr @luaL_findtable(ptr noundef %0, i32 noundef %1, ptr noundef %2, i32 noundef %3) #0 {
  %5 = alloca ptr, align 8
  %6 = alloca ptr, align 8
  %7 = alloca i32, align 4
  %8 = alloca ptr, align 8
  %9 = alloca i32, align 4
  %10 = alloca ptr, align 8
  %11 = alloca i32, align 4
  store ptr %0, ptr %6, align 8, !tbaa !4
  store i32 %1, ptr %7, align 4, !tbaa !9
  store ptr %2, ptr %8, align 8, !tbaa !11
  store i32 %3, ptr %9, align 4, !tbaa !9
  call void @llvm.lifetime.start.p0(i64 8, ptr %10) #9
  %12 = load ptr, ptr %6, align 8, !tbaa !4
  %13 = load i32, ptr %7, align 4, !tbaa !9
  call void @lua_pushvalue(ptr noundef %12, i32 noundef %13)
  br label %14

14:                                               ; preds = %69, %4
  %15 = load ptr, ptr %8, align 8, !tbaa !11
  %16 = call ptr @strchr(ptr noundef %15, i32 noundef 46) #11
  store ptr %16, ptr %10, align 8, !tbaa !11
  %17 = load ptr, ptr %10, align 8, !tbaa !11
  %18 = icmp eq ptr %17, null
  br i1 %18, label %19, label %24

19:                                               ; preds = %14
  %20 = load ptr, ptr %8, align 8, !tbaa !11
  %21 = load ptr, ptr %8, align 8, !tbaa !11
  %22 = call i64 @strlen(ptr noundef %21) #11
  %23 = getelementptr inbounds nuw i8, ptr %20, i64 %22
  store ptr %23, ptr %10, align 8, !tbaa !11
  br label %24

24:                                               ; preds = %19, %14
  %25 = load ptr, ptr %6, align 8, !tbaa !4
  %26 = load ptr, ptr %8, align 8, !tbaa !11
  %27 = load ptr, ptr %10, align 8, !tbaa !11
  %28 = load ptr, ptr %8, align 8, !tbaa !11
  %29 = ptrtoint ptr %27 to i64
  %30 = ptrtoint ptr %28 to i64
  %31 = sub i64 %29, %30
  call void @lua_pushlstring(ptr noundef %25, ptr noundef %26, i64 noundef %31)
  %32 = load ptr, ptr %6, align 8, !tbaa !4
  call void @lua_rawget(ptr noundef %32, i32 noundef -2)
  %33 = load ptr, ptr %6, align 8, !tbaa !4
  %34 = call i32 @lua_type(ptr noundef %33, i32 noundef -1)
  %35 = icmp eq i32 %34, 0
  br i1 %35, label %36, label %57

36:                                               ; preds = %24
  %37 = load ptr, ptr %6, align 8, !tbaa !4
  call void @lua_settop(ptr noundef %37, i32 noundef -2)
  %38 = load ptr, ptr %6, align 8, !tbaa !4
  %39 = load ptr, ptr %10, align 8, !tbaa !11
  %40 = load i8, ptr %39, align 1, !tbaa !19
  %41 = sext i8 %40 to i32
  %42 = icmp eq i32 %41, 46
  br i1 %42, label %43, label %44

43:                                               ; preds = %36
  br label %46

44:                                               ; preds = %36
  %45 = load i32, ptr %9, align 4, !tbaa !9
  br label %46

46:                                               ; preds = %44, %43
  %47 = phi i32 [ 1, %43 ], [ %45, %44 ]
  call void @lua_createtable(ptr noundef %38, i32 noundef 0, i32 noundef %47)
  %48 = load ptr, ptr %6, align 8, !tbaa !4
  %49 = load ptr, ptr %8, align 8, !tbaa !11
  %50 = load ptr, ptr %10, align 8, !tbaa !11
  %51 = load ptr, ptr %8, align 8, !tbaa !11
  %52 = ptrtoint ptr %50 to i64
  %53 = ptrtoint ptr %51 to i64
  %54 = sub i64 %52, %53
  call void @lua_pushlstring(ptr noundef %48, ptr noundef %49, i64 noundef %54)
  %55 = load ptr, ptr %6, align 8, !tbaa !4
  call void @lua_pushvalue(ptr noundef %55, i32 noundef -2)
  %56 = load ptr, ptr %6, align 8, !tbaa !4
  call void @lua_settable(ptr noundef %56, i32 noundef -4)
  br label %65

57:                                               ; preds = %24
  %58 = load ptr, ptr %6, align 8, !tbaa !4
  %59 = call i32 @lua_type(ptr noundef %58, i32 noundef -1)
  %60 = icmp eq i32 %59, 5
  br i1 %60, label %64, label %61

61:                                               ; preds = %57
  %62 = load ptr, ptr %6, align 8, !tbaa !4
  call void @lua_settop(ptr noundef %62, i32 noundef -3)
  %63 = load ptr, ptr %8, align 8, !tbaa !11
  store ptr %63, ptr %5, align 8
  store i32 1, ptr %11, align 4
  br label %75

64:                                               ; preds = %57
  br label %65

65:                                               ; preds = %64, %46
  %66 = load ptr, ptr %6, align 8, !tbaa !4
  call void @lua_remove(ptr noundef %66, i32 noundef -2)
  %67 = load ptr, ptr %10, align 8, !tbaa !11
  %68 = getelementptr inbounds i8, ptr %67, i64 1
  store ptr %68, ptr %8, align 8, !tbaa !11
  br label %69

69:                                               ; preds = %65
  %70 = load ptr, ptr %10, align 8, !tbaa !11
  %71 = load i8, ptr %70, align 1, !tbaa !19
  %72 = sext i8 %71 to i32
  %73 = icmp eq i32 %72, 46
  br i1 %73, label %14, label %74, !llvm.loop !45

74:                                               ; preds = %69
  store ptr null, ptr %5, align 8
  store i32 1, ptr %11, align 4
  br label %75

75:                                               ; preds = %74, %61
  call void @llvm.lifetime.end.p0(i64 8, ptr %10) #9
  %76 = load ptr, ptr %5, align 8
  ret ptr %76
}