; Function Attrs: nounwind uwtable
define dso_local noundef ptr @luaL_findtable(ptr noundef %0, i32 noundef %1, ptr noundef %2, i32 noundef %3) local_unnamed_addr #0 {
  tail call void @lua_pushvalue(ptr noundef %0, i32 noundef %1) #13
  br label %5

5:                                                ; preds = %25, %4
  %.029 = phi ptr [ %2, %4 ], [ %26, %25 ]
  %6 = tail call ptr @strchr(ptr noundef nonnull dereferenceable(1) %.029, i32 noundef 46) #14
  %7 = icmp eq ptr %6, null
  br i1 %7, label %8, label %11

8:                                                ; preds = %5
  %9 = tail call i64 @strlen(ptr noundef nonnull dereferenceable(1) %.029) #14
  %10 = getelementptr inbounds nuw i8, ptr %.029, i64 %9
  br label %11

11:                                               ; preds = %8, %5
  %.0 = phi ptr [ %10, %8 ], [ %6, %5 ]
  %12 = ptrtoint ptr %.0 to i64
  %13 = ptrtoint ptr %.029 to i64
  %14 = sub i64 %12, %13
  tail call void @lua_pushlstring(ptr noundef %0, ptr noundef nonnull %.029, i64 noundef %14) #13
  tail call void @lua_rawget(ptr noundef %0, i32 noundef -2) #13
  %15 = tail call i32 @lua_type(ptr noundef %0, i32 noundef -1) #13
  %16 = icmp eq i32 %15, 0
  br i1 %16, label %17, label %21

17:                                               ; preds = %11
  tail call void @lua_settop(ptr noundef %0, i32 noundef -2) #13
  %18 = load i8, ptr %.0, align 1, !tbaa !14
  %19 = icmp eq i8 %18, 46
  %20 = select i1 %19, i32 1, i32 %3
  tail call void @lua_createtable(ptr noundef %0, i32 noundef 0, i32 noundef %20) #13
  tail call void @lua_pushlstring(ptr noundef %0, ptr noundef nonnull %.029, i64 noundef %14) #13
  tail call void @lua_pushvalue(ptr noundef %0, i32 noundef -2) #13
  tail call void @lua_settable(ptr noundef %0, i32 noundef -4) #13
  br label %25

21:                                               ; preds = %11
  %22 = tail call i32 @lua_type(ptr noundef %0, i32 noundef -1) #13
  %23 = icmp eq i32 %22, 5
  br i1 %23, label %25, label %24

24:                                               ; preds = %21
  tail call void @lua_settop(ptr noundef %0, i32 noundef -3) #13
  br label %.loopexit

25:                                               ; preds = %21, %17
  tail call void @lua_remove(ptr noundef %0, i32 noundef -2) #13
  %26 = getelementptr inbounds nuw i8, ptr %.0, i64 1
  %27 = load i8, ptr %.0, align 1, !tbaa !14
  %28 = icmp eq i8 %27, 46
  br i1 %28, label %5, label %.loopexit, !llvm.loop !42

.loopexit:                                        ; preds = %25, %24
  %.028 = phi ptr [ %.029, %24 ], [ null, %25 ]
  ret ptr %.028
}